; Function Attrs: mustprogress uwtable
define void @_ZN7rocksdb6Logger5CloseEv(ptr dead_on_unwind noalias writable sret(%"class.rocksdb::Status") align 8 %0, ptr noundef nonnull align 8 dereferenceable(10) %1) unnamed_addr #4 align 2 personality ptr @__gxx_personality_v0 {
  %3 = getelementptr inbounds nuw i8, ptr %1, i64 8
  %4 = load i8, ptr %3, align 8, !tbaa !219, !range !117, !noundef !118
  %5 = trunc nuw i8 %4 to i1
  br i1 %5, label %10, label %6

6:                                                ; preds = %2
  store i8 1, ptr %3, align 8, !tbaa !219
  %7 = load ptr, ptr %1, align 8, !tbaa !18
  %8 = getelementptr inbounds nuw i8, ptr %7, i64 80
  %9 = load ptr, ptr %8, align 8
  tail call void %9(ptr dead_on_unwind writable sret(%"class.rocksdb::Status") align 8 %0, ptr noundef nonnull align 8 dereferenceable(10) %1)
  br label %12

10:                                               ; preds = %2
  %11 = getelementptr inbounds nuw i8, ptr %0, i64 8
  store ptr null, ptr %11, align 8, !tbaa !127, !alias.scope !222
  tail call void @llvm.memset.p0.i64(ptr noundef nonnull align 8 dereferenceable(16) %0, i8 0, i64 6, i1 false), !alias.scope !222
  br label %12

12:                                               ; preds = %10, %6
  ret void
}